; Function Attrs: mustprogress nofree norecurse nosync nounwind willreturn memory(argmem: readwrite) uwtable
define dso_local void @_ZN18cmCTestTestHandler16UseExcludeRegExpEv(ptr nocapture noundef nonnull align 8 dereferenceable(4416) %0) local_unnamed_addr #8 align 2 {
  %2 = getelementptr inbounds i8, ptr %0, i64 521
  store i8 1, ptr %2, align 1
  %3 = getelementptr inbounds i8, ptr %0, i64 520
  %4 = load i8, ptr %3, align 8
  %5 = and i8 %4, 1
  %6 = getelementptr inbounds i8, ptr %0, i64 522
  %7 = xor i8 %5, 1
  store i8 %7, ptr %6, align 2
  ret void
}